target datalayout = "e-m:e-p270:32:32-p271:32:32-p272:64:64-i64:64-i128:128-f80:128-n8:16:32:64-S128"
target triple = "x86_64-pc-linux-gnu"

%struct._cms_typehandler_struct = type { i32, ptr, ptr, ptr, ptr, ptr, i32 }
%struct.cmsICCMeasurementConditions = type { i32, %struct.cmsCIEXYZ, i32, double, i32 }
%struct.cmsCIEXYZ = type { double, double, double }

; Function Attrs: nounwind uwtable
define internal ptr @Type_Measurement_Read(ptr noundef %0, ptr noundef %1, ptr noundef %2, i32 noundef %3) #0 {
  %5 = alloca ptr, align 8
  %6 = alloca ptr, align 8
  %7 = alloca ptr, align 8
  %8 = alloca ptr, align 8
  %9 = alloca i32, align 4
  %10 = alloca %struct.cmsICCMeasurementConditions, align 8
  store ptr %0, ptr %6, align 8
  store ptr %1, ptr %7, align 8
  store ptr %2, ptr %8, align 8
  store i32 %3, ptr %9, align 4
  call void @llvm.memset.p0.i64(ptr align 8 %10, i8 0, i64 56, i1 false)
  %11 = load ptr, ptr %7, align 8
  %12 = getelementptr inbounds %struct.cmsICCMeasurementConditions, ptr %10, i32 0, i32 0
  %13 = call i32 @_cmsReadUInt32Number(ptr noundef %11, ptr noundef %12)
  %14 = icmp ne i32 %13, 0
  br i1 %14, label %16, label %15

15:                                               ; preds = %4
  store ptr null, ptr %5, align 8
  br label %46

16:                                               ; preds = %4
  %17 = load ptr, ptr %7, align 8
  %18 = getelementptr inbounds %struct.cmsICCMeasurementConditions, ptr %10, i32 0, i32 1
  %19 = call i32 @_cmsReadXYZNumber(ptr noundef %17, ptr noundef %18)
  %20 = icmp ne i32 %19, 0
  br i1 %20, label %22, label %21

21:                                               ; preds = %16
  store ptr null, ptr %5, align 8
  br label %46

22:                                               ; preds = %16
  %23 = load ptr, ptr %7, align 8
  %24 = getelementptr inbounds %struct.cmsICCMeasurementConditions, ptr %10, i32 0, i32 2
  %25 = call i32 @_cmsReadUInt32Number(ptr noundef %23, ptr noundef %24)
  %26 = icmp ne i32 %25, 0
  br i1 %26, label %28, label %27

27:                                               ; preds = %22
  store ptr null, ptr %5, align 8
  br label %46

28:                                               ; preds = %22
  %29 = load ptr, ptr %7, align 8
  %30 = getelementptr inbounds %struct.cmsICCMeasurementConditions, ptr %10, i32 0, i32 3
  %31 = call i32 @_cmsRead15Fixed16Number(ptr noundef %29, ptr noundef %30)
  %32 = icmp ne i32 %31, 0
  br i1 %32, label %34, label %33

33:                                               ; preds = %28
  store ptr null, ptr %5, align 8
  br label %46

34:                                               ; preds = %28
  %35 = load ptr, ptr %7, align 8
  %36 = getelementptr inbounds %struct.cmsICCMeasurementConditions, ptr %10, i32 0, i32 4
  %37 = call i32 @_cmsReadUInt32Number(ptr noundef %35, ptr noundef %36)
  %38 = icmp ne i32 %37, 0
  br i1 %38, label %40, label %39

39:                                               ; preds = %34
  store ptr null, ptr %5, align 8
  br label %46

40:                                               ; preds = %34
  %41 = load ptr, ptr %8, align 8
  store i32 1, ptr %41, align 4
  %42 = load ptr, ptr %6, align 8
  %43 = getelementptr inbounds %struct._cms_typehandler_struct, ptr %42, i32 0, i32 5
  %44 = load ptr, ptr %43, align 8
  %45 = call ptr @_cmsDupMem(ptr noundef %44, ptr noundef %10, i32 noundef 56)
  store ptr %45, ptr %5, align 8
  br label %46

46:                                               ; preds = %40, %39, %33, %27, %21, %15
  %47 = load ptr, ptr %5, align 8
  ret ptr %47
}