; Function Attrs: nounwind uwtable
define internal ptr @Type_Measurement_Read(ptr nocapture noundef readonly %0, ptr noundef %1, ptr nocapture noundef writeonly %2, i32 %3) #0 {
  %5 = alloca %struct.cmsICCMeasurementConditions, align 8
  call void @llvm.memset.p0.i64(ptr noundef nonnull align 8 dereferenceable(56) %5, i8 0, i64 56, i1 false)
  %6 = call i32 @_cmsReadUInt32Number(ptr noundef %1, ptr noundef nonnull %5) #13
  %.not = icmp eq i32 %6, 0
  br i1 %.not, label %23, label %7

7:                                                ; preds = %4
  %8 = getelementptr inbounds i8, ptr %5, i64 8
  %9 = call i32 @_cmsReadXYZNumber(ptr noundef %1, ptr noundef nonnull %8) #13
  %.not8 = icmp eq i32 %9, 0
  br i1 %.not8, label %23, label %10

10:                                               ; preds = %7
  %11 = getelementptr inbounds i8, ptr %5, i64 32
  %12 = call i32 @_cmsReadUInt32Number(ptr noundef %1, ptr noundef nonnull %11) #13
  %.not9 = icmp eq i32 %12, 0
  br i1 %.not9, label %23, label %13

13:                                               ; preds = %10
  %14 = getelementptr inbounds i8, ptr %5, i64 40
  %15 = call i32 @_cmsRead15Fixed16Number(ptr noundef %1, ptr noundef nonnull %14) #13
  %.not10 = icmp eq i32 %15, 0
  br i1 %.not10, label %23, label %16

16:                                               ; preds = %13
  %17 = getelementptr inbounds i8, ptr %5, i64 48
  %18 = call i32 @_cmsReadUInt32Number(ptr noundef %1, ptr noundef nonnull %17) #13
  %.not11 = icmp eq i32 %18, 0
  br i1 %.not11, label %23, label %19

19:                                               ; preds = %16
  store i32 1, ptr %2, align 4
  %20 = getelementptr inbounds i8, ptr %0, i64 40
  %21 = load ptr, ptr %20, align 8
  %22 = call ptr @_cmsDupMem(ptr noundef %21, ptr noundef nonnull %5, i32 noundef 56) #13
  br label %23

23:                                               ; preds = %16, %13, %10, %7, %4, %19
  %.0 = phi ptr [ %22, %19 ], [ null, %4 ], [ null, %7 ], [ null, %10 ], [ null, %13 ], [ null, %16 ]
  ret ptr %.0
}